; ModuleID = 'source-C-CXX/45/3553.c'
source_filename = "source-C-CXX/45/3553.c"
target datalayout = "e-m:e-p270:32:32-p271:32:32-p272:64:64-i64:64-f80:128-n8:16:32:64-S128"
target triple = "x86_64-pc-linux-gnu"

@.str = private unnamed_addr constant [5 x i8] c"%d%d\00", align 1
@.str.1 = private unnamed_addr constant [3 x i8] c"%d\00", align 1
@.str.2 = private unnamed_addr constant [4 x i8] c"%d\0A\00", align 1

; Function Attrs: nofree nounwind sspstrong uwtable
define dso_local i32 @main() local_unnamed_addr #0 {
  %1 = alloca [100 x [100 x i32]], align 16
  %2 = alloca i32, align 4
  %3 = alloca i32, align 4
  %4 = bitcast [100 x [100 x i32]]* %1 to i8*
  call void @llvm.lifetime.start.p0i8(i64 40000, i8* nonnull %4) #3
  %5 = bitcast i32* %2 to i8*
  call void @llvm.lifetime.start.p0i8(i64 4, i8* nonnull %5) #3
  %6 = bitcast i32* %3 to i8*
  call void @llvm.lifetime.start.p0i8(i64 4, i8* nonnull %6) #3
  %7 = call i32 (i8*, ...) @__isoc99_scanf(i8* getelementptr inbounds ([5 x i8], [5 x i8]* @.str, i64 0, i64 0), i32* nonnull %2, i32* nonnull %3)
  %8 = load i32, i32* %2, align 4, !tbaa !5
  %9 = icmp sgt i32 %8, 0
  %10 = load i32, i32* %3, align 4
  %11 = icmp sgt i32 %10, 0
  %12 = select i1 %9, i1 %11, i1 false
  br i1 %12, label %13, label %112

13:                                               ; preds = %0, %28
  %14 = phi i32 [ %29, %28 ], [ %8, %0 ]
  %15 = phi i32 [ %30, %28 ], [ %10, %0 ]
  %16 = phi i64 [ %31, %28 ], [ 0, %0 ]
  %17 = icmp sgt i32 %15, 0
  br i1 %17, label %18, label %28

18:                                               ; preds = %13, %18
  %19 = phi i64 [ %22, %18 ], [ 0, %13 ]
  %20 = getelementptr inbounds [100 x [100 x i32]], [100 x [100 x i32]]* %1, i64 0, i64 %16, i64 %19
  %21 = call i32 (i8*, ...) @__isoc99_scanf(i8* getelementptr inbounds ([3 x i8], [3 x i8]* @.str.1, i64 0, i64 0), i32* nonnull %20)
  %22 = add nuw nsw i64 %19, 1
  %23 = load i32, i32* %3, align 4, !tbaa !5
  %24 = sext i32 %23 to i64
  %25 = icmp slt i64 %22, %24
  br i1 %25, label %18, label %26, !llvm.loop !9

26:                                               ; preds = %18
  %27 = load i32, i32* %2, align 4, !tbaa !5
  br label %28

28:                                               ; preds = %26, %13
  %29 = phi i32 [ %27, %26 ], [ %14, %13 ]
  %30 = phi i32 [ %23, %26 ], [ %15, %13 ]
  %31 = add nuw nsw i64 %16, 1
  %32 = sext i32 %29 to i64
  %33 = icmp slt i64 %31, %32
  br i1 %33, label %13, label %34, !llvm.loop !11

34:                                               ; preds = %28
  %35 = icmp sgt i32 %29, 0
  %36 = icmp sgt i32 %30, 0
  %37 = select i1 %35, i1 %36, i1 false
  br i1 %37, label %38, label %112

38:                                               ; preds = %34
  %39 = add nsw i32 %30, -1
  %40 = add nsw i32 %29, -1
  %41 = zext i32 %30 to i64
  %42 = zext i32 %29 to i64
  %43 = zext i32 %40 to i64
  %44 = zext i32 %39 to i64
  br label %45

45:                                               ; preds = %38, %105
  %46 = phi i64 [ %42, %38 ], [ %56, %105 ]
  %47 = phi i64 [ %41, %38 ], [ %55, %105 ]
  %48 = phi i64 [ %44, %38 ], [ %111, %105 ]
  %49 = phi i64 [ %43, %38 ], [ %110, %105 ]
  %50 = phi i64 [ %42, %38 ], [ %54, %105 ]
  %51 = phi i64 [ %41, %38 ], [ %53, %105 ]
  %52 = phi i64 [ 0, %38 ], [ %106, %105 ]
  %53 = add nsw i64 %51, -1
  %54 = add nsw i64 %50, -1
  %55 = add nsw i64 %47, -1
  %56 = add nsw i64 %46, -1
  %57 = icmp slt i64 %52, %56
  %58 = icmp slt i64 %52, %55
  %59 = select i1 %57, i1 %58, i1 false
  br i1 %59, label %60, label %88

60:                                               ; preds = %45, %60
  %61 = phi i64 [ %65, %60 ], [ %52, %45 ]
  %62 = getelementptr inbounds [100 x [100 x i32]], [100 x [100 x i32]]* %1, i64 0, i64 %52, i64 %61
  %63 = load i32, i32* %62, align 4, !tbaa !5
  %64 = call i32 (i8*, ...) @printf(i8* nonnull dereferenceable(1) getelementptr inbounds ([4 x i8], [4 x i8]* @.str.2, i64 0, i64 0), i32 %63)
  %65 = add nuw nsw i64 %61, 1
  %66 = icmp eq i64 %65, %48
  br i1 %66, label %67, label %60, !llvm.loop !13

67:                                               ; preds = %60, %67
  %68 = phi i64 [ %72, %67 ], [ %52, %60 ]
  %69 = getelementptr inbounds [100 x [100 x i32]], [100 x [100 x i32]]* %1, i64 0, i64 %68, i64 %55
  %70 = load i32, i32* %69, align 4, !tbaa !5
  %71 = call i32 (i8*, ...) @printf(i8* nonnull dereferenceable(1) getelementptr inbounds ([4 x i8], [4 x i8]* @.str.2, i64 0, i64 0), i32 %70)
  %72 = add nuw nsw i64 %68, 1
  %73 = icmp eq i64 %72, %49
  br i1 %73, label %74, label %67, !llvm.loop !14

74:                                               ; preds = %67, %74
  %75 = phi i64 [ %79, %74 ], [ %53, %67 ]
  %76 = getelementptr inbounds [100 x [100 x i32]], [100 x [100 x i32]]* %1, i64 0, i64 %56, i64 %75
  %77 = load i32, i32* %76, align 4, !tbaa !5
  %78 = call i32 (i8*, ...) @printf(i8* nonnull dereferenceable(1) getelementptr inbounds ([4 x i8], [4 x i8]* @.str.2, i64 0, i64 0), i32 %77)
  %79 = add nsw i64 %75, -1
  %80 = icmp sgt i64 %79, %52
  br i1 %80, label %74, label %81, !llvm.loop !15

81:                                               ; preds = %74, %81
  %82 = phi i64 [ %86, %81 ], [ %54, %74 ]
  %83 = getelementptr inbounds [100 x [100 x i32]], [100 x [100 x i32]]* %1, i64 0, i64 %82, i64 %52
  %84 = load i32, i32* %83, align 4, !tbaa !5
  %85 = call i32 (i8*, ...) @printf(i8* nonnull dereferenceable(1) getelementptr inbounds ([4 x i8], [4 x i8]* @.str.2, i64 0, i64 0), i32 %84)
  %86 = add nsw i64 %82, -1
  %87 = icmp sgt i64 %86, %52
  br i1 %87, label %81, label %105, !llvm.loop !16

88:                                               ; preds = %45
  %89 = and i64 %56, 4294967295
  %90 = icmp eq i64 %52, %89
  br i1 %90, label %91, label %98

91:                                               ; preds = %88, %91
  %92 = phi i64 [ %96, %91 ], [ %52, %88 ]
  %93 = getelementptr inbounds [100 x [100 x i32]], [100 x [100 x i32]]* %1, i64 0, i64 %52, i64 %92
  %94 = load i32, i32* %93, align 4, !tbaa !5
  %95 = call i32 (i8*, ...) @printf(i8* nonnull dereferenceable(1) getelementptr inbounds ([4 x i8], [4 x i8]* @.str.2, i64 0, i64 0), i32 %94)
  %96 = add nuw nsw i64 %92, 1
  %97 = icmp eq i64 %96, %47
  br i1 %97, label %105, label %91, !llvm.loop !17

98:                                               ; preds = %88, %98
  %99 = phi i64 [ %103, %98 ], [ %52, %88 ]
  %100 = getelementptr inbounds [100 x [100 x i32]], [100 x [100 x i32]]* %1, i64 0, i64 %99, i64 %52
  %101 = load i32, i32* %100, align 4, !tbaa !5
  %102 = call i32 (i8*, ...) @printf(i8* nonnull dereferenceable(1) getelementptr inbounds ([4 x i8], [4 x i8]* @.str.2, i64 0, i64 0), i32 %101)
  %103 = add nuw nsw i64 %99, 1
  %104 = icmp eq i64 %103, %46
  br i1 %104, label %105, label %98, !llvm.loop !18

105:                                              ; preds = %98, %91, %81
  %106 = add nuw nsw i64 %52, 1
  %107 = icmp slt i64 %106, %56
  %108 = icmp slt i64 %106, %55
  %109 = select i1 %107, i1 %108, i1 false
  %110 = add nsw i64 %49, -1
  %111 = add nsw i64 %48, -1
  br i1 %109, label %45, label %112, !llvm.loop !19

112:                                              ; preds = %105, %0, %34
  call void @llvm.lifetime.end.p0i8(i64 4, i8* nonnull %6) #3
  call void @llvm.lifetime.end.p0i8(i64 4, i8* nonnull %5) #3
  call void @llvm.lifetime.end.p0i8(i64 40000, i8* nonnull %4) #3
  ret i32 0
}

; Function Attrs: argmemonly mustprogress nofree nosync nounwind willreturn
declare void @llvm.lifetime.start.p0i8(i64 immarg, i8* nocapture) #1

; Function Attrs: nofree nounwind
declare noundef i32 @__isoc99_scanf(i8* nocapture noundef readonly, ...) local_unnamed_addr #2

; Function Attrs: nofree nounwind
declare noundef i32 @printf(i8* nocapture noundef readonly, ...) local_unnamed_addr #2

; Function Attrs: argmemonly mustprogress nofree nosync nounwind willreturn
declare void @llvm.lifetime.end.p0i8(i64 immarg, i8* nocapture) #1


!llvm.module.flags = !{!0, !1, !2, !3}
!llvm.ident = !{!4}

!0 = !{i32 1, !"wchar_size", i32 4}
!1 = !{i32 7, !"PIC Level", i32 2}
!2 = !{i32 7, !"PIE Level", i32 2}
!3 = !{i32 7, !"uwtable", i32 1}
!4 = !{!"clang version 13.0.0"}
!5 = !{!6, !6, i64 0}
!6 = !{!"int", !7, i64 0}
!7 = !{!"omnipotent char", !8, i64 0}
!8 = !{!"Simple C/C++ TBAA"}
!9 = distinct !{!9, !10}
!10 = !{!"llvm.loop.mustprogress"}
!11 = distinct !{!11, !10, !12}
!12 = !{!"llvm.loop.unswitch.partial.disable"}
!13 = distinct !{!13, !10}
!14 = distinct !{!14, !10}
!15 = distinct !{!15, !10}
!16 = distinct !{!16, !10}
!17 = distinct !{!17, !10}
!18 = distinct !{!18, !10}
!19 = distinct !{!19, !10}
